Certificate Request:
    Data:
        Version: 0 (0x0)
        Subject: C=FR, ST=IDF, L=Paris, O=Local NODE-OPCUA Certificate Authority, CN=NodeOPCUA
        Subject Public Key Info:
            Public Key Algorithm: rsaEncryption
            RSA Public Key: (2048 bit)
                Modulus (2048 bit):
                    00:c7:c2:52:bd:6d:6c:ae:92:0a:8f:64:5d:c6:87:
                    b6:dc:e9:06:40:51:f2:fc:22:f3:f1:d5:b4:5d:80:
                    8c:6b:02:eb:0a:14:cd:3e:0c:a2:54:fc:be:0a:6b:
                    b5:19:8c:fe:96:93:29:7f:0e:2b:a6:a8:f0:d6:0a:
                    8c:55:d8:9e:3d:d7:7b:6d:37:b7:95:93:d7:8b:14:
                    14:23:8a:c8:8b:77:90:5c:0e:6c:07:2b:1c:cb:aa:
                    70:d1:03:24:5a:5b:50:73:1a:a3:cb:ea:9c:2a:40:
                    4d:fd:09:08:1f:e7:a8:02:9a:39:af:fd:aa:73:2b:
                    4b:95:94:e6:2c:b2:c7:f7:4e:78:9b:42:5b:a4:75:
                    67:2b:dd:6f:1a:f8:6f:94:69:1e:21:c6:70:dc:60:
                    81:40:b5:a0:8e:41:f7:a6:ff:ed:4f:a0:f9:b6:86:
                    76:f3:78:32:fd:1b:ea:4f:be:f3:eb:b2:72:b0:a4:
                    3b:64:e7:c6:d7:fe:38:bf:64:6e:3c:37:b4:0b:94:
                    39:ca:a3:7d:dd:01:12:29:dd:9e:80:25:41:8e:cd:
                    14:c3:60:51:24:4c:55:55:68:40:11:1e:f3:ed:f4:
                    e9:26:3a:74:85:6b:a1:99:3f:5c:ea:eb:65:b9:ab:
                    43:55:96:a6:ba:cb:37:6c:b6:67:5b:fa:a7:2d:be:
                    5b:8b
                Exponent: 65537 (0x10001)
        Attributes:
        Requested Extensions:
            X509v3 Basic Constraints: critical
                CA:FALSE
            X509v3 Key Usage: 
                Digital Signature, Non Repudiation, Key Encipherment, Data Encipherment, Key Agreement
            X509v3 Subject Alternative Name: 
                URI:undefined, DNS:, DNS:
            Netscape Comment: 
                CA Generated by Node-OPCUA Certificate utility using openssl
    Signature Algorithm: sha256WithRSAEncryption
        52:43:18:56:6e:0a:ac:98:34:15:f4:62:4e:51:f1:4b:de:00:
        53:b7:a4:7a:01:40:9f:a2:2a:dc:6d:3a:3f:3f:f4:a1:83:39:
        1e:a7:36:6d:f9:28:68:e7:1d:1d:a2:f2:4c:7d:54:ac:e2:4d:
        ac:fa:6c:e6:87:a5:44:6a:e3:08:57:57:9b:8f:f7:48:ab:df:
        87:0f:32:a1:e7:14:de:57:9e:23:2c:e3:ae:21:58:cd:70:b8:
        75:50:55:a8:45:e5:3c:38:33:80:7e:c4:33:8b:8f:b7:6e:bc:
        d8:0a:95:ff:95:4f:4a:ff:74:6f:de:ba:aa:e9:21:80:e8:b6:
        f8:93:ca:53:69:02:a2:94:41:46:a8:f1:21:e6:fc:6e:cf:37:
        23:cb:fc:05:98:3e:df:be:c2:25:f6:4d:ff:78:86:ab:7e:f6:
        53:ba:22:09:b3:dc:e6:50:12:68:32:db:a4:af:af:9d:23:9e:
        dc:af:8c:9d:1b:5c:db:a0:d1:b2:f3:c2:0d:4b:53:4d:41:63:
        86:70:cc:ab:3c:ac:f8:a2:c4:b5:e0:c1:ea:91:05:5d:4f:a0:
        9d:e1:80:3b:c0:0b:2f:62:e0:ad:53:02:72:a3:38:20:00:95:
        96:f9:9b:58:1b:e8:37:58:2d:30:a9:34:bb:b0:d3:b4:7e:63:
        d4:e2:32:47
-----BEGIN CERTIFICATE REQUEST-----
MIIDTDCCAjQCAQAwcDELMAkGA1UEBhMCRlIxDDAKBgNVBAgTA0lERjEOMAwGA1UE
BxMFUGFyaXMxLzAtBgNVBAoTJkxvY2FsIE5PREUtT1BDVUEgQ2VydGlmaWNhdGUg
QXV0aG9yaXR5MRIwEAYDVQQDEwlOb2RlT1BDVUEwggEiMA0GCSqGSIb3DQEBAQUA
A4IBDwAwggEKAoIBAQDHwlK9bWyukgqPZF3Gh7bc6QZAUfL8IvPx1bRdgIxrAusK
FM0+DKJU/L4Ka7UZjP6Wkyl/DiumqPDWCoxV2J4913ttN7eVk9eLFBQjisiLd5Bc
DmwHKxzLqnDRAyRaW1BzGqPL6pwqQE39CQgf56gCmjmv/apzK0uVlOYsssf3Tnib
QlukdWcr3W8a+G+UaR4hxnDcYIFAtaCOQfem/+1PoPm2hnbzeDL9G+pPvvPrsnKw
pDtk58bX/ji/ZG48N7QLlDnKo33dARIp3Z6AJUGOzRTDYFEkTFVVaEARHvPt9Okm
OnSFa6GZP1zq62W5q0NVlqa6yzdstmdb+qctvluLAgMBAAGggZYwgZMGCSqGSIb3
DQEJDjGBhTCBgjAMBgNVHRMBAf8EAjAAMAsGA1UdDwQEAwID+DAYBgNVHREEETAP
hgl1bmRlZmluZWSCAIIAMEsGCWCGSAGG+EIBDQQ+FjxDQSBHZW5lcmF0ZWQgYnkg
Tm9kZS1PUENVQSBDZXJ0aWZpY2F0ZSB1dGlsaXR5IHVzaW5nIG9wZW5zc2wwDQYJ
KoZIhvcNAQELBQADggEBAFJDGFZuCqyYNBX0Yk5R8UveAFO3pHoBQJ+iKtxtOj8/
9KGDOR6nNm35KGjnHR2i8kx9VKziTaz6bOaHpURq4whXV5uP90ir34cPMqHnFN5X
niMs464hWM1wuHVQVahF5Tw4M4B+xDOLj7duvNgKlf+VT0r/dG/euqrpIYDotviT
ylNpAqKUQUao8SHm/G7PNyPL/AWYPt++wiX2Tf94hqt+9lO6Igmz3OZQEmgy26Sv
r50jntyvjJ0bXNug0bLzwg1LU01BY4ZwzKs8rPiixLXgweqRBV1PoJ3hgDvACy9i
4K1TAnKjOCAAlZb5m1gb6DdYLTCpNLuw07R+Y9TiMkc=
-----END CERTIFICATE REQUEST-----
