Certificate Request:
    Data:
        Version: 0 (0x0)
        Subject: C=FR, O=NodeOPCUA, CN=NodeOPCUA
        Subject Public Key Info:
            Public Key Algorithm: rsaEncryption
            RSA Public Key: (1024 bit)
                Modulus (1024 bit):
                    00:b9:c4:00:df:5f:1e:6a:5b:db:eb:60:d8:1b:2e:
                    96:ca:2c:96:e4:33:4c:d5:3c:b2:25:90:14:f3:c8:
                    fa:06:a7:37:39:12:c2:de:05:e9:f0:0f:29:d6:45:
                    27:69:26:a0:3d:fd:c5:55:b7:62:cf:fd:23:a8:b3:
                    2b:11:12:a3:02:c5:1d:b9:c7:9c:08:b5:35:92:15:
                    34:93:2a:c4:3a:75:28:48:d8:c8:30:a1:d0:60:4b:
                    b8:11:64:53:46:4f:40:9c:d7:66:88:00:73:da:69:
                    76:a0:3d:bf:aa:98:22:bd:50:da:da:a8:0f:85:96:
                    13:d0:01:b7:a9:12:4b:80:f3
                Exponent: 65537 (0x10001)
        Attributes:
        Requested Extensions:
            X509v3 Basic Constraints: 
                CA:FALSE
            X509v3 Key Usage: critical
                Certificate Sign, CRL Sign
            X509v3 Subject Alternative Name: 
                URI:undefined, DNS:, DNS:, DNS:, DNS:, DNS:
    Signature Algorithm: sha256WithRSAEncryption
        7c:ba:08:7e:59:b8:70:80:27:ac:c4:f6:22:cd:d7:ae:8b:9a:
        55:d6:21:56:bb:1b:ef:2d:1c:14:22:12:ae:e1:f4:2e:3f:4e:
        c3:a3:3a:ee:a7:42:75:c7:20:81:3e:e2:97:28:f5:4a:55:43:
        75:3a:bf:43:b2:5c:4d:91:a0:0d:73:a1:d4:c0:57:4e:12:5f:
        4e:ab:68:68:28:c6:7c:4f:37:33:a5:f6:ac:a4:0d:81:73:c5:
        63:53:aa:f0:07:48:32:34:6d:ea:fb:f2:63:68:ab:94:14:ed:
        68:a9:e0:99:49:09:94:a5:82:5f:3e:31:dd:6f:aa:90:ea:c0:
        ba:2f
-----BEGIN CERTIFICATE REQUEST-----
MIIBwTCCASoCAQAwNTELMAkGA1UEBhMCRlIxEjAQBgNVBAoMCU5vZGVPUENVQTES
MBAGA1UEAwwJTm9kZU9QQ1VBMIGfMA0GCSqGSIb3DQEBAQUAA4GNADCBiQKBgQC5
xADfXx5qW9vrYNgbLpbKLJbkM0zVPLIlkBTzyPoGpzc5EsLeBenwDynWRSdpJqA9
/cVVt2LP/SOosysREqMCxR25x5wItTWSFTSTKsQ6dShI2MgwodBgS7gRZFNGT0Cc
12aIAHPaaXagPb+qmCK9UNraqA+FlhPQAbepEkuA8wIDAQABoEwwSgYJKoZIhvcN
AQkOMT0wOzAJBgNVHRMEAjAAMA4GA1UdDwEB/wQEAwIBBjAeBgNVHREEFzAVhgl1
bmRlZmluZWSCAIIAggCCAIIAMA0GCSqGSIb3DQEBCwUAA4GBAHy6CH5ZuHCAJ6zE
9iLN166LmlXWIVa7G+8tHBQiEq7h9C4/TsOjOu6nQnXHIIE+4pco9UpVQ3U6v0Oy
XE2RoA1zodTAV04SX06raGgoxnxPNzOl9qykDYFzxWNTqvAHSDI0ber78mNoq5QU
7Wip4JlJCZSlgl8+Md1vqpDqwLov
-----END CERTIFICATE REQUEST-----
