Certificate:
    Data:
        Version: 1 (0x0)
        Serial Number:
            98:ab:7a:bc:81:f9:c5:b0
        Signature Algorithm: itu-t
        Issuer: C=FR, ST=IDF, L=Paris, O=Local NODE-OPCUA Certificate Authority, CN=NodeOPCUA
        Validity
            Not Before: Dec  2 16:48:32 2016 GMT
            Not After : Nov 30 16:48:32 2026 GMT
        Subject: C=FR, ST=IDF, L=Paris, O=Local NODE-OPCUA Certificate Authority, CN=NodeOPCUA
        Subject Public Key Info:
            Public Key Algorithm: rsaEncryption
            RSA Public Key: (2048 bit)
                Modulus (2048 bit):
                    00:c7:c2:52:bd:6d:6c:ae:92:0a:8f:64:5d:c6:87:
                    b6:dc:e9:06:40:51:f2:fc:22:f3:f1:d5:b4:5d:80:
                    8c:6b:02:eb:0a:14:cd:3e:0c:a2:54:fc:be:0a:6b:
                    b5:19:8c:fe:96:93:29:7f:0e:2b:a6:a8:f0:d6:0a:
                    8c:55:d8:9e:3d:d7:7b:6d:37:b7:95:93:d7:8b:14:
                    14:23:8a:c8:8b:77:90:5c:0e:6c:07:2b:1c:cb:aa:
                    70:d1:03:24:5a:5b:50:73:1a:a3:cb:ea:9c:2a:40:
                    4d:fd:09:08:1f:e7:a8:02:9a:39:af:fd:aa:73:2b:
                    4b:95:94:e6:2c:b2:c7:f7:4e:78:9b:42:5b:a4:75:
                    67:2b:dd:6f:1a:f8:6f:94:69:1e:21:c6:70:dc:60:
                    81:40:b5:a0:8e:41:f7:a6:ff:ed:4f:a0:f9:b6:86:
                    76:f3:78:32:fd:1b:ea:4f:be:f3:eb:b2:72:b0:a4:
                    3b:64:e7:c6:d7:fe:38:bf:64:6e:3c:37:b4:0b:94:
                    39:ca:a3:7d:dd:01:12:29:dd:9e:80:25:41:8e:cd:
                    14:c3:60:51:24:4c:55:55:68:40:11:1e:f3:ed:f4:
                    e9:26:3a:74:85:6b:a1:99:3f:5c:ea:eb:65:b9:ab:
                    43:55:96:a6:ba:cb:37:6c:b6:67:5b:fa:a7:2d:be:
                    5b:8b
                Exponent: 65537 (0x10001)
    Signature Algorithm: itu-t
-----BEGIN CERTIFICATE-----
MIIE1DCCA7ygAwIBAgIJAJireryB+cWwMA0GCSqGSIb3DQEBCwUAMHAxCzAJBgNV
BAYTAkZSMQwwCgYDVQQIEwNJREYxDjAMBgNVBAcTBVBhcmlzMS8wLQYDVQQKEyZM
b2NhbCBOT0RFLU9QQ1VBIENlcnRpZmljYXRlIEF1dGhvcml0eTESMBAGA1UEAxMJ
Tm9kZU9QQ1VBMB4XDTE2MTIwMjE2NDgzMloXDTI2MTEzMDE2NDgzMlowcDELMAkG
A1UEBhMCRlIxDDAKBgNVBAgTA0lERjEOMAwGA1UEBxMFUGFyaXMxLzAtBgNVBAoT
JkxvY2FsIE5PREUtT1BDVUEgQ2VydGlmaWNhdGUgQXV0aG9yaXR5MRIwEAYDVQQD
EwlOb2RlT1BDVUEwggEiMA0GCSqGSIb3DQEBAQUAA4IBDwAwggEKAoIBAQDHwlK9
bWyukgqPZF3Gh7bc6QZAUfL8IvPx1bRdgIxrAusKFM0+DKJU/L4Ka7UZjP6Wkyl/
DiumqPDWCoxV2J4913ttN7eVk9eLFBQjisiLd5BcDmwHKxzLqnDRAyRaW1BzGqPL
6pwqQE39CQgf56gCmjmv/apzK0uVlOYsssf3TnibQlukdWcr3W8a+G+UaR4hxnDc
YIFAtaCOQfem/+1PoPm2hnbzeDL9G+pPvvPrsnKwpDtk58bX/ji/ZG48N7QLlDnK
o33dARIp3Z6AJUGOzRTDYFEkTFVVaEARHvPt9OkmOnSFa6GZP1zq62W5q0NVlqa6
yzdstmdb+qctvluLAgMBAAGjggFvMIIBazAdBgNVHQ4EFgQUPJDtPfHBNntJ+T67
HmMDHl71JYkwgaIGA1UdIwSBmjCBl4AUPJDtPfHBNntJ+T67HmMDHl71JYmhdKRy
MHAxCzAJBgNVBAYTAkZSMQwwCgYDVQQIEwNJREYxDjAMBgNVBAcTBVBhcmlzMS8w
LQYDVQQKEyZMb2NhbCBOT0RFLU9QQ1VBIENlcnRpZmljYXRlIEF1dGhvcml0eTES
MBAGA1UEAxMJTm9kZU9QQ1VBggkAmKt6vIH5xbAwDAYDVR0TBAUwAwEB/zAOBgNV
HQ8BAf8EBAMCAQYwVwYJYIZIAYb4QgENBEoWSENBIENlcnRpZmljYXRlIGdlbmVy
YXRlZCBieSBOb2RlLU9QQ1VBIENlcnRpZmljYXRlIHV0aWxpdHkgdXNpbmcgb3Bl
bnNzbDAuBgNVHR8EJzAlMCOgIaAfhh1odHRwOi8vbG9jYWxob3N0Ojg5MDAvY3Js
LnBlbTANBgkqhkiG9w0BAQsFAAOCAQEAira8bVXQPU0inlHVvin/dCo3yCH/NGlc
+knZwwLATSty8Tw6MjEKUm8tH2EubNV252ACJex9yP//dd2/G5GUvyeSTnl3f8Wt
rpNDuu/TkBENPIOcE4HUkeX4FLEW2G30gjbXmTFdXGVVI1gOEOZAh2ti+x0nJ3D+
PLJXiVJ1F6Ikk9d9vTSAlrRLsEeUW7ZsMRSy52/pspW8nqA99FYKFRQPP4KPFGMc
6FCRvcCG3YOwvyTWbkongg0gikCA70DiWH0lK1LbPuTBqeDyTgzLFbfhhMjIudOn
j/oVMxesRKDfBjT5KdLhuiGNLONhiwIL58UCkXgHV4WQ8VX893UuWg==
-----END CERTIFICATE-----
